target datalayout = "e-m:e-p270:32:32-p271:32:32-p272:64:64-i64:64-i128:128-f80:128-n8:16:32:64-S128"
target triple = "x86_64-pc-linux-gnu"

%class.colvarvalue = type { i32, double, %"class.colvarmodule::rvector", %"class.colvarmodule::quaternion", %"class.colvarmodule::vector1d", %"class.std::vector.0", %"class.std::vector.5", %"class.std::vector.5" }
%"class.colvarmodule::rvector" = type { double, double, double }
%"class.colvarmodule::quaternion" = type { double, double, double, double }
%"class.colvarmodule::vector1d" = type { %"class.std::vector" }
%"class.std::vector" = type { %"struct.std::_Vector_base" }
%"struct.std::_Vector_base" = type { %"struct.std::_Vector_base<double, std::allocator<double>>::_Vector_impl" }
%"struct.std::_Vector_base<double, std::allocator<double>>::_Vector_impl" = type { %"struct.std::_Vector_base<double, std::allocator<double>>::_Vector_impl_data" }
%"struct.std::_Vector_base<double, std::allocator<double>>::_Vector_impl_data" = type { ptr, ptr, ptr }
%"class.std::vector.0" = type { %"struct.std::_Vector_base.1" }
%"struct.std::_Vector_base.1" = type { %"struct.std::_Vector_base<colvarvalue::Type, std::allocator<colvarvalue::Type>>::_Vector_impl" }
%"struct.std::_Vector_base<colvarvalue::Type, std::allocator<colvarvalue::Type>>::_Vector_impl" = type { %"struct.std::_Vector_base<colvarvalue::Type, std::allocator<colvarvalue::Type>>::_Vector_impl_data" }
%"struct.std::_Vector_base<colvarvalue::Type, std::allocator<colvarvalue::Type>>::_Vector_impl_data" = type { ptr, ptr, ptr }
%"class.std::vector.5" = type { %"struct.std::_Vector_base.6" }
%"struct.std::_Vector_base.6" = type { %"struct.std::_Vector_base<int, std::allocator<int>>::_Vector_impl" }
%"struct.std::_Vector_base<int, std::allocator<int>>::_Vector_impl" = type { %"struct.std::_Vector_base<int, std::allocator<int>>::_Vector_impl_data" }
%"struct.std::_Vector_base<int, std::allocator<int>>::_Vector_impl_data" = type { ptr, ptr, ptr }

; Function Attrs: mustprogress nounwind uwtable
define linkonce_odr noundef i64 @_ZNKSt6vectorIdSaIdEE4sizeEv(ptr noundef nonnull align 8 dereferenceable(24) %0) #2 comdat align 2 {
  %2 = alloca ptr, align 8
  store ptr %0, ptr %2, align 8, !tbaa !51
  %3 = load ptr, ptr %2, align 8
  %4 = getelementptr inbounds nuw %"struct.std::_Vector_base", ptr %3, i32 0, i32 0
  %5 = getelementptr inbounds nuw %"struct.std::_Vector_base<double, std::allocator<double>>::_Vector_impl_data", ptr %4, i32 0, i32 1
  %6 = load ptr, ptr %5, align 8, !tbaa !54
  %7 = getelementptr inbounds nuw %"struct.std::_Vector_base", ptr %3, i32 0, i32 0
  %8 = getelementptr inbounds nuw %"struct.std::_Vector_base<double, std::allocator<double>>::_Vector_impl_data", ptr %7, i32 0, i32 0
  %9 = load ptr, ptr %8, align 8, !tbaa !53
  %10 = ptrtoint ptr %6 to i64
  %11 = ptrtoint ptr %9 to i64
  %12 = sub i64 %10, %11
  %13 = sdiv exact i64 %12, 8
  ret i64 %13
}

; Function Attrs: inlinehint mustprogress nounwind uwtable
define linkonce_odr noundef i64 @_ZNK12colvarmodule8vector1dIdE4sizeEv(ptr noundef nonnull align 8 dereferenceable(24) %0) #3 comdat align 2 {
  %2 = alloca ptr, align 8
  store ptr %0, ptr %2, align 8, !tbaa !35
  %3 = load ptr, ptr %2, align 8
  %4 = getelementptr inbounds nuw %"class.colvarmodule::vector1d", ptr %3, i32 0, i32 0
  %5 = call noundef i64 @_ZNKSt6vectorIdSaIdEE4sizeEv(ptr noundef nonnull align 8 dereferenceable(24) %4) #15
  ret i64 %5
}

; Function Attrs: inlinehint mustprogress nounwind uwtable
define linkonce_odr noundef i64 @_ZNK12colvarmodule8vector1dIdE12output_widthEm(ptr noundef nonnull align 8 dereferenceable(24) %0, i64 noundef %1) #3 comdat align 2 {
  %3 = alloca ptr, align 8
  %4 = alloca i64, align 8
  store ptr %0, ptr %3, align 8, !tbaa !35
  store i64 %1, ptr %4, align 8, !tbaa !37
  %5 = load ptr, ptr %3, align 8
  %6 = load i64, ptr %4, align 8, !tbaa !37
  %7 = call noundef i64 @_ZNK12colvarmodule8vector1dIdE4sizeEv(ptr noundef nonnull align 8 dereferenceable(24) %5)
  %8 = mul i64 %6, %7
  %9 = call noundef i64 @_ZNK12colvarmodule8vector1dIdE4sizeEv(ptr noundef nonnull align 8 dereferenceable(24) %5)
  %10 = sub i64 %9, 1
  %11 = mul i64 3, %10
  %12 = add i64 %8, %11
  %13 = add i64 %12, 4
  ret i64 %13
}

; Function Attrs: inlinehint mustprogress nounwind uwtable
define linkonce_odr noundef i64 @_ZN12colvarmodule10quaternion12output_widthEm(i64 noundef %0) #3 comdat align 2 {
  %2 = alloca i64, align 8
  store i64 %0, ptr %2, align 8, !tbaa !37
  %3 = load i64, ptr %2, align 8, !tbaa !37
  %4 = mul i64 4, %3
  %5 = add i64 %4, 13
  ret i64 %5
}

; Function Attrs: inlinehint mustprogress nounwind uwtable
define linkonce_odr noundef i64 @_ZN12colvarmodule7rvector12output_widthEm(i64 noundef %0) #3 comdat align 2 {
  %2 = alloca i64, align 8
  store i64 %0, ptr %2, align 8, !tbaa !37
  %3 = load i64, ptr %2, align 8, !tbaa !37
  %4 = mul i64 3, %3
  %5 = add i64 %4, 10
  ret i64 %5
}

; Function Attrs: mustprogress uwtable
define noundef i64 @_ZNK11colvarvalue12output_widthERKm(ptr noundef nonnull align 8 dereferenceable(168) %0, ptr noundef nonnull align 8 dereferenceable(8) %1) #0 align 2 {
  %3 = alloca i64, align 8
  %4 = alloca ptr, align 8
  %5 = alloca ptr, align 8
  store ptr %0, ptr %4, align 8, !tbaa !4
  store ptr %1, ptr %5, align 8, !tbaa !67
  %6 = load ptr, ptr %4, align 8
  %7 = getelementptr inbounds nuw %class.colvarvalue, ptr %6, i32 0, i32 0
  %8 = load i32, ptr %7, align 8, !tbaa !9
  switch i32 %8, label %26 [
    i32 1, label %9
    i32 2, label %12
    i32 3, label %12
    i32 4, label %12
    i32 5, label %16
    i32 6, label %16
    i32 7, label %20
    i32 0, label %25
  ]

9:                                                ; preds = %2
  %10 = load ptr, ptr %5, align 8, !tbaa !67
  %11 = load i64, ptr %10, align 8, !tbaa !37
  store i64 %11, ptr %3, align 8
  br label %27

12:                                               ; preds = %2, %2, %2
  %13 = load ptr, ptr %5, align 8, !tbaa !67
  %14 = load i64, ptr %13, align 8, !tbaa !37
  %15 = call noundef i64 @_ZN12colvarmodule7rvector12output_widthEm(i64 noundef %14)
  store i64 %15, ptr %3, align 8
  br label %27

16:                                               ; preds = %2, %2
  %17 = load ptr, ptr %5, align 8, !tbaa !67
  %18 = load i64, ptr %17, align 8, !tbaa !37
  %19 = call noundef i64 @_ZN12colvarmodule10quaternion12output_widthEm(i64 noundef %18)
  store i64 %19, ptr %3, align 8
  br label %27

20:                                               ; preds = %2
  %21 = getelementptr inbounds nuw %class.colvarvalue, ptr %6, i32 0, i32 4
  %22 = load ptr, ptr %5, align 8, !tbaa !67
  %23 = load i64, ptr %22, align 8, !tbaa !37
  %24 = call noundef i64 @_ZNK12colvarmodule8vector1dIdE12output_widthEm(ptr noundef nonnull align 8 dereferenceable(24) %21, i64 noundef %23)
  store i64 %24, ptr %3, align 8
  br label %27

25:                                               ; preds = %2
  br label %26

26:                                               ; preds = %2, %25
  store i64 0, ptr %3, align 8
  br label %27

27:                                               ; preds = %26, %20, %16, %12, %9
  %28 = load i64, ptr %3, align 8
  ret i64 %28
}