; Function Attrs: mustprogress nofree norecurse nosync nounwind willreturn memory(argmem: read) uwtable
define noundef i64 @_ZNK11colvarvalue12output_widthERKm(ptr noundef nonnull readonly align 8 captures(none) dereferenceable(168) %0, ptr noundef nonnull readonly align 8 captures(none) dereferenceable(8) %1) local_unnamed_addr #18 align 2 {
  %3 = load i32, ptr %0, align 8, !tbaa !4
  switch i32 %3, label %25 [
    i32 1, label %4
    i32 2, label %6
    i32 3, label %6
    i32 4, label %6
    i32 5, label %10
    i32 6, label %10
    i32 7, label %14
  ]

4:                                                ; preds = %2
  %5 = load i64, ptr %1, align 8, !tbaa !56
  br label %25

6:                                                ; preds = %2, %2, %2
  %7 = load i64, ptr %1, align 8, !tbaa !56
  %8 = mul i64 %7, 3
  %9 = add i64 %8, 10
  br label %25

10:                                               ; preds = %2, %2
  %11 = load i64, ptr %1, align 8, !tbaa !56
  %12 = shl i64 %11, 2
  %13 = add i64 %12, 13
  br label %25

14:                                               ; preds = %2
  %15 = getelementptr inbounds nuw i8, ptr %0, i64 72
  %16 = load i64, ptr %1, align 8, !tbaa !56
  %17 = getelementptr inbounds nuw i8, ptr %0, i64 80
  %18 = load ptr, ptr %17, align 8, !tbaa !28
  %19 = load ptr, ptr %15, align 8, !tbaa !29
  %20 = ptrtoint ptr %18 to i64
  %21 = ptrtoint ptr %19 to i64
  %22 = sub i64 %20, %21
  %23 = ashr exact i64 %22, 3
  %reass.add.i = add i64 %16, 3
  %reass.mul.i = mul i64 %23, %reass.add.i
  %24 = add i64 %reass.mul.i, 1
  br label %25

25:                                               ; preds = %2, %14, %10, %6, %4
  %.0 = phi i64 [ %24, %14 ], [ %13, %10 ], [ %9, %6 ], [ %5, %4 ], [ 0, %2 ]
  ret i64 %.0
}